(dp1
S'OriginalConfig'
p2
ccopy_reg
_reconstructor
p3
(cWMCore.Configuration
Configuration
p4
c__builtin__
object
p5
NtRp6
(dp7
S'Site'
p8
g3
(cWMCore.Configuration
ConfigSection
p9
g5
NtRp10
(dp11
S'_internal_skipChecks'
p12
I00
sS'_internal_documentation'
p13
S''
sS'_internal_settings'
p14
c__builtin__
set
p15
((lp16
S'storageSite'
p17
atRp18
sS'_internal_name'
p19
g8
sS'_internal_docstrings'
p20
(dp21
sS'_internal_children'
p22
g15
((ltRp23
sg17
S'T3_US_FNALLPC'
p24
sS'_internal_parent_ref'
p25
NsbsS'_internal_sections'
p26
(lp27
S'General'
p28
aS'JobType'
p29
aS'Data'
p30
ag8
asg28
g3
(g9
g5
NtRp31
(dp32
S'transferLogs'
p33
I01
sg12
I00
sg13
S''
sg14
g15
((lp34
g33
aS'workArea'
p35
aS'requestName'
p36
atRp37
sg19
g28
sg20
(dp38
sg22
g15
((ltRp39
sg36
S'MuTau2018C'
p40
sg25
Nsg35
S'crab_projects'
p41
sbsS'_internal_webapps'
p42
(lp43
sS'_internal_components'
p44
(lp45
sg30
g3
(g9
g5
NtRp46
(dp47
S'inputDataset'
p48
S'/EmbeddingRun2018C/MuTauFinalState_inputDoubleMu_102X_NanoAODv5_v1-DeepTauv2p1_TauPOG-v1/USER'
p49
sS'outputDatasetTag'
p50
g40
sg12
I00
sS'splitting'
p51
S'Automatic'
p52
sg13
S''
sg14
g15
((lp53
g48
ag50
aS'publication'
p54
aS'inputDBS'
p55
ag51
aS'outLFNDirBase'
p56
aS'totalUnits'
p57
atRp58
sg19
g30
sg55
S'phys03'
p59
sg20
(dp60
sg22
g15
((ltRp61
sg54
I01
sg56
S'/store/user/twelton/MuTau2018C'
p62
sg25
Nsg57
I5425000
sbsg29
g3
(g9
g5
NtRp63
(dp64
g12
I00
sg13
S''
sg14
g15
((lp65
S'psetName'
p66
aS'pluginName'
p67
aS'inputFiles'
p68
aS'sendPythonFolder'
p69
aS'scriptExe'
p70
atRp71
sg19
g29
sg70
S'crab_script.sh'
p72
sg20
(dp73
sg69
I01
sg67
S'Analysis'
p74
sg22
g15
((ltRp75
sg66
S'PSet.py'
p76
sg25
Nsg68
(lp77
S'crab_script.py'
p78
aS'../scripts/haddnano.py'
p79
asbsbsS'voGroup'
p80
S''
sS'Server'
p81
S'cmsweb.cern.ch'
p82
sS'instance'
p83
S'prod'
p84
sS'RequestName'
p85
V200427_092516:twelton_crab_MuTau2018C
p86
sS'voRole'
p87
S'NULL'
p88
sS'Port'
p89
S''
s.