(dp1
S'OriginalConfig'
p2
ccopy_reg
_reconstructor
p3
(cWMCore.Configuration
Configuration
p4
c__builtin__
object
p5
NtRp6
(dp7
S'Site'
p8
g3
(cWMCore.Configuration
ConfigSection
p9
g5
NtRp10
(dp11
S'_internal_skipChecks'
p12
I00
sS'_internal_documentation'
p13
S''
sS'_internal_settings'
p14
c__builtin__
set
p15
((lp16
S'storageSite'
p17
atRp18
sS'_internal_name'
p19
g8
sS'_internal_docstrings'
p20
(dp21
sS'_internal_children'
p22
g15
((ltRp23
sg17
S'T3_US_FNALLPC'
p24
sS'_internal_parent_ref'
p25
NsbsS'_internal_sections'
p26
(lp27
S'General'
p28
aS'JobType'
p29
aS'Data'
p30
ag8
aS'User'
p31
aS'Debug'
p32
asg28
g3
(g9
g5
NtRp33
(dp34
S'transferLogs'
p35
I01
sg12
I00
sg13
S''
sg14
g15
((lp36
g35
aS'transferOutputs'
p37
aS'workArea'
p38
aS'requestName'
p39
atRp40
sg19
g28
sg20
(dp41
sg37
I01
sg22
g15
((ltRp42
sg39
S'TauTauFinalState-inputDoubleMu_94X_Legacy_nanoAOD-v1'
p43
sg25
Nsg38
S'crab_projects'
p44
sbsS'_internal_webapps'
p45
(lp46
sg31
g3
(g9
g5
NtRp47
(dp48
g12
I00
sg13
S''
sg14
g15
((ltRp49
sg19
g31
sg20
(dp50
sg22
g15
((ltRp51
sg25
NsbsS'_internal_components'
p52
(lp53
sg32
g3
(g9
g5
NtRp54
(dp55
g12
I00
sg13
S''
sg14
g15
((ltRp56
sg19
g32
sg20
(dp57
sg22
g15
((ltRp58
sg25
Nsbsg30
g3
(g9
g5
NtRp59
(dp60
S'inputDataset'
p61
S'/EmbeddingRun2016B/TauTauFinalState-inputDoubleMu_94X_Legacy_miniAOD-v5/USER'
p62
sS'outputDatasetTag'
p63
g43
sg12
I00
sS'splitting'
p64
S'FileBased'
p65
sS'unitsPerJob'
p66
I10
sg13
S''
sg14
g15
((lp67
g61
ag63
aS'totalUnits'
p68
ag66
aS'inputDBS'
p69
ag64
aS'outLFNDirBase'
p70
atRp71
sg19
g30
sg69
S'phys03'
p72
sg20
(dp73
sg22
g15
((ltRp74
sg70
S'/store/user/twelton/TauTauFinalState-inputDoubleMu_94X_Legacy_nanoAOD-v1'
p75
sg25
Nsg68
I3783
sbsg29
g3
(g9
g5
NtRp76
(dp77
g12
I00
sg13
S''
sg14
g15
((lp78
S'psetName'
p79
aS'pluginName'
p80
atRp81
sg19
g29
sg20
(dp82
sg80
S'Analysis'
p83
sg22
g15
((ltRp84
sg79
S'./nanoProd_16_NANO.py'
p85
sg25
NsbsbsS'voGroup'
p86
S''
sS'Server'
p87
S'cmsweb.cern.ch'
p88
sS'instance'
p89
S'prod'
p90
sS'RequestName'
p91
V200203_135413:twelton_crab_TauTauFinalState-inputDoubleMu_94X_Legacy_nanoAOD-v1
p92
sS'voRole'
p93
S'NULL'
p94
sS'Port'
p95
S''
s.