(dp1
S'OriginalConfig'
p2
ccopy_reg
_reconstructor
p3
(cWMCore.Configuration
Configuration
p4
c__builtin__
object
p5
NtRp6
(dp7
S'Site'
p8
g3
(cWMCore.Configuration
ConfigSection
p9
g5
NtRp10
(dp11
S'_internal_skipChecks'
p12
I00
sS'_internal_documentation'
p13
S''
sS'_internal_settings'
p14
c__builtin__
set
p15
((lp16
S'storageSite'
p17
atRp18
sS'_internal_name'
p19
g8
sS'_internal_docstrings'
p20
(dp21
sS'_internal_children'
p22
g15
((ltRp23
sg17
S'T3_US_FNALLPC'
p24
sS'_internal_parent_ref'
p25
NsbsS'_internal_sections'
p26
(lp27
S'General'
p28
aS'JobType'
p29
aS'Data'
p30
ag8
aS'User'
p31
aS'Debug'
p32
asg28
g3
(g9
g5
NtRp33
(dp34
S'transferLogs'
p35
I01
sg12
I00
sg13
S''
sg14
g15
((lp36
g35
aS'transferOutputs'
p37
aS'workArea'
p38
aS'requestName'
p39
atRp40
sg19
g28
sg20
(dp41
sg37
I01
sg22
g15
((ltRp42
sg39
S'ExcitingAnalyzer_ElTau_Run2016C'
p43
sg25
Nsg38
S'crab_projects'
p44
sbsS'_internal_webapps'
p45
(lp46
sg31
g3
(g9
g5
NtRp47
(dp48
g12
I00
sg13
S''
sg14
g15
((ltRp49
sg19
g31
sg20
(dp50
sg22
g15
((ltRp51
sg25
NsbsS'_internal_components'
p52
(lp53
sg32
g3
(g9
g5
NtRp54
(dp55
g12
I00
sg13
S''
sg14
g15
((ltRp56
sg19
g32
sg20
(dp57
sg22
g15
((ltRp58
sg25
Nsbsg30
g3
(g9
g5
NtRp59
(dp60
S'inputDataset'
p61
S'/EmbeddingRun2016C/ElTauFinalState-inputDoubleMu_94X_Legacy_miniAOD-v5/USER'
p62
sS'allowNonValidInputDataset'
p63
I01
sg12
I00
sS'splitting'
p64
S'Automatic'
p65
sg13
S''
sg14
g15
((lp66
g61
ag63
ag64
aS'inputDBS'
p67
aS'lumiMask'
p68
aS'outLFNDirBase'
p69
atRp70
sg19
g30
sg67
S'phys03'
p71
sg20
(dp72
sg22
g15
((ltRp73
sg69
S'/store/user/twelton/ExcitingAnalyzer_v1'
p74
sg25
Nsg68
S'./Final/Cert_271036-284044_13TeV_23Sep2016ReReco_Collisions16_JSON.txt'
p75
sbsg29
g3
(g9
g5
NtRp76
(dp77
g12
I00
sS'pyCfgParams'
p78
(lp79
S'applyFilter=True'
p80
aS'doSS=False'
p81
aS'isMC=False'
p82
asg13
S''
sg14
g15
((lp83
S'psetName'
p84
aS'pluginName'
p85
ag78
atRp86
sg19
g29
sg20
(dp87
sg85
S'Analysis'
p88
sg22
g15
((ltRp89
sg84
S'./excitingAnalyzer2016_cfg.py'
p90
sg25
NsbsbsS'voGroup'
p91
S''
sS'Server'
p92
S'cmsweb.cern.ch'
p93
sS'instance'
p94
S'prod'
p95
sS'RequestName'
p96
V191104_222237:twelton_crab_ExcitingAnalyzer_ElTau_Run2016C
p97
sS'voRole'
p98
S'NULL'
p99
sS'Port'
p100
S''
s.