ccopy_reg
_reconstructor
p0
(cFWCore.ParameterSet.Config
Process
p1
c__builtin__
object
p2
Ntp3
Rp4
(dp5
S'_Process__sequences'
p6
(dp7
sS'_Process__services'
p8
(dp9
sS'_Process__source'
p10
g0
(cFWCore.ParameterSet.Modules
Source
p11
g2
Ntp12
Rp13
(dp14
S'_Parameterizable__parameterNames'
p15
(lp16
S'fileNames'
p17
asS'_isFrozen'
p18
I00
sS'_isModified'
p19
I01
sS'_lineNumber'
p20
I193
sS'_filename'
p21
S'/cvmfs/cms.cern.ch/slc6_amd64_gcc700/cms/cmssw/CMSSW_10_2_16/python/FWCore/ParameterSet/Modules.py'
p22
sg17
g0
(cFWCore.ParameterSet.Types
vstring
p23
c__builtin__
list
p24
(lp25
S'../../NanoAOD/test/lzma.root'
p26
atp27
Rp28
(dp29
g18
I00
sS'_ParameterTypeBase__isTracked'
p30
I00
sg19
I01
sS'_nPerLine'
p31
I1
sbsS'_TypedParameterizable__type'
p32
S'PoolSource'
p33
sbsS'_Process__aliases'
p34
(dp35
sS'out'
p36
g0
(cFWCore.ParameterSet.SequenceTypes
EndPath
p37
g2
Ntp38
Rp39
(dp40
g18
I00
sS'_seq'
p41
g0
(cFWCore.ParameterSet.SequenceTypes
_SequenceCollection
p42
g2
Ntp43
Rp44
(dp45
S'_collection'
p46
(lp47
g0
(cFWCore.ParameterSet.Modules
OutputModule
p48
g2
Ntp49
Rp50
(dp51
g15
(lp52
S'fileName'
p53
asg18
I00
sg19
I00
sg20
I13
sg21
S'/uscms_data/d3/twelton/WorkingArea/CMSSW_10_2_16/src/PhysicsTools/NanoAODTools/crab/PSet.py'
p54
sg53
g0
(cFWCore.ParameterSet.Types
string
p55
g2
Ntp56
Rp57
(dp58
g18
I00
sg30
I00
sS'_value'
p59
S'tree.root'
p60
sg19
I00
sbsS'_Labelable__label'
p61
S'output'
p62
sg32
S'PoolOutputModule'
p63
sbasbsg61
g36
sg19
I00
sS'_tasks'
p64
g0
(cFWCore.ParameterSet.OrderedSet
OrderedSet
p65
g2
Ntp66
Rp67
(dp68
S'map'
p69
(dp70
sS'end'
p71
(lp72
Nag72
ag72
asbsbsS'_Process__psets'
p73
(dp74
S'maxEvents'
p75
g0
(cFWCore.ParameterSet.Types
PSet
p76
g2
Ntp77
Rp78
(dp79
g18
I00
sg30
I00
sg19
I00
sg15
(lp80
S'input'
p81
asg61
g75
sg81
g0
(cFWCore.ParameterSet.Types
int32
p82
g2
Ntp83
Rp84
(dp85
g18
I00
sg30
I00
sg59
I10
sg19
I00
sbsbssS'_Process__essources'
p86
(dp87
sg33
g13
sg75
g78
sS'source'
p88
g13
sS'_Process__vpsets'
p89
(dp90
sS'_Process__name'
p91
S'NANO'
p92
sS'_Process__subProcesses'
p93
(lp94
sS'_cloneToObjectDict'
p95
(dp96
I140443403405648
g78
sI140443403405584
g50
sI140443402620112
g39
ssS'_Process__esprefers'
p97
(dp98
sS'_Process__schedule'
p99
Nsg62
g50
sS'_Process__outputmodules'
p100
(dp101
g62
g50
ssS'_Process__analyzers'
p102
(dp103
sS'_Process__InExtendCall'
p104
I00
sS'_Process__modifiers'
p105
(tsS'_Process__producers'
p106
(dp107
sS'_Process__filters'
p108
(dp109
sS'_Process__looper'
p110
NsS'_Process__endpaths'
p111
g0
(cFWCore.ParameterSet.DictTypes
SortedKeysDict
p112
c__builtin__
dict
p113
(dp114
g36
g39
stp115
Rp116
(dp117
S'list'
p118
(lp119
g36
asbsS'_Process__esproducers'
p120
(dp121
sS'_Process__tasks'
p122
(dp123
sS'_Process__paths'
p124
g0
(g112
g113
(dp125
tp126
Rp127
(dp128
g118
(lp129
sbsS'_Process__partialschedules'
p130
(dp131
sS'_Process__isStrict'
p132
I00
sb.